target datalayout = "e-m:e-p270:32:32-p271:32:32-p272:64:64-i64:64-i128:128-f80:128-n8:16:32:64-S128"
target triple = "x86_64-unknown-linux-gnu"

; Function Attrs: mustprogress nounwind uwtable
define internal noundef nonnull align 8 dereferenceable(8) ptr @_ZNSt9_Any_data9_M_accessIZN7testing19exceptions_internal19ExceptionSafetyTestINS1_12_GLOBAL__N_111NonCopyableEE12WrapContractIPFNS1_15AssertionResultEPNS4_11NonNegativeEEEESt8functionIFS8_PS5_EERKT_EUlSE_E_EERSH_v(ptr noundef nonnull align 8 dereferenceable(16) %this) #7 align 2 {
entry:
  %this.addr = alloca ptr, align 8
  store ptr %this, ptr %this.addr, align 8
  %this1 = load ptr, ptr %this.addr, align 8
  %call = call noundef ptr @_ZNSt9_Any_data9_M_accessEv(ptr noundef nonnull align 8 dereferenceable(16) %this1) #3
  ret ptr %call
}

; Function Attrs: noreturn nounwind uwtable
define linkonce_odr hidden void @__clang_call_terminate(ptr noundef %0) #11 comdat {
  %2 = call ptr @__cxa_begin_catch(ptr %0) #3
  call void @_ZSt9terminatev() #19
  unreachable
}

; Function Attrs: mustprogress nounwind uwtable
define internal void @_ZNSt14_Function_base13_Base_managerIZN7testing19exceptions_internal19ExceptionSafetyTestINS1_12_GLOBAL__N_111NonCopyableEE12WrapContractIPFNS1_15AssertionResultEPNS4_11NonNegativeEEEESt8functionIFS8_PS5_EERKT_EUlSE_E_E9_M_createIRKSK_EEvRSt9_Any_dataOSH_St17integral_constantIbLb1EE(ptr noundef nonnull align 8 dereferenceable(16) %__dest, ptr noundef nonnull align 8 dereferenceable(8) %__f) #7 align 2 {
entry:
  %__dest.addr = alloca ptr, align 8
  %__f.addr = alloca ptr, align 8
  store ptr %__dest, ptr %__dest.addr, align 8
  store ptr %__f, ptr %__f.addr, align 8
  %0 = load ptr, ptr %__dest.addr, align 8
  %call = call noundef ptr @_ZNSt9_Any_data9_M_accessEv(ptr noundef nonnull align 8 dereferenceable(16) %0) #3
  %1 = load ptr, ptr %__f.addr, align 8
  call void @llvm.memcpy.p0.p0.i64(ptr align 8 %call, ptr align 8 %1, i64 8, i1 false)
  ret void
}

; Function Attrs: mustprogress nounwind uwtable
define linkonce_odr dso_local noundef ptr @_ZNKSt9_Any_data9_M_accessEv(ptr noundef nonnull align 8 dereferenceable(16) %this) #7 comdat align 2 {
entry:
  %this.addr = alloca ptr, align 8
  store ptr %this, ptr %this.addr, align 8
  %this1 = load ptr, ptr %this.addr, align 8
  %arrayidx = getelementptr inbounds [16 x i8], ptr %this1, i64 0, i64 0
  ret ptr %arrayidx
}

; Function Attrs: mustprogress nounwind uwtable
define internal void @_ZNSt14_Function_base13_Base_managerIZN7testing19exceptions_internal19ExceptionSafetyTestINS1_12_GLOBAL__N_111NonCopyableEE12WrapContractIPFNS1_15AssertionResultEPNS4_11NonNegativeEEEESt8functionIFS8_PS5_EERKT_EUlSE_E_E10_M_destroyERSt9_Any_dataSt17integral_constantIbLb1EE(ptr noundef nonnull align 8 dereferenceable(16) %__victim) #7 align 2 {
entry:
  %__victim.addr = alloca ptr, align 8
  store ptr %__victim, ptr %__victim.addr, align 8
  %0 = load ptr, ptr %__victim.addr, align 8
  %call = call noundef nonnull align 8 dereferenceable(8) ptr @_ZNSt9_Any_data9_M_accessIZN7testing19exceptions_internal19ExceptionSafetyTestINS1_12_GLOBAL__N_111NonCopyableEE12WrapContractIPFNS1_15AssertionResultEPNS4_11NonNegativeEEEESt8functionIFS8_PS5_EERKT_EUlSE_E_EERSH_v(ptr noundef nonnull align 8 dereferenceable(16) %0) #3
  ret void
}

; Function Attrs: mustprogress nounwind uwtable
define internal void @_ZNSt14_Function_base13_Base_managerIZN7testing19exceptions_internal19ExceptionSafetyTestINS1_12_GLOBAL__N_111NonCopyableEE12WrapContractIPFNS1_15AssertionResultEPNS4_11NonNegativeEEEESt8functionIFS8_PS5_EERKT_EUlSE_E_E15_M_init_functorIRKSK_EEvRSt9_Any_dataOSH_(ptr noundef nonnull align 8 dereferenceable(16) %__functor, ptr noundef nonnull align 8 dereferenceable(8) %__f) #7 align 2 personality ptr @__gxx_personality_v0 {
entry:
  %__functor.addr = alloca ptr, align 8
  %__f.addr = alloca ptr, align 8
  store ptr %__functor, ptr %__functor.addr, align 8
  store ptr %__f, ptr %__f.addr, align 8
  %0 = load ptr, ptr %__functor.addr, align 8
  %1 = load ptr, ptr %__f.addr, align 8
  invoke void @_ZNSt14_Function_base13_Base_managerIZN7testing19exceptions_internal19ExceptionSafetyTestINS1_12_GLOBAL__N_111NonCopyableEE12WrapContractIPFNS1_15AssertionResultEPNS4_11NonNegativeEEEESt8functionIFS8_PS5_EERKT_EUlSE_E_E9_M_createIRKSK_EEvRSt9_Any_dataOSH_St17integral_constantIbLb1EE(ptr noundef nonnull align 8 dereferenceable(16) %0, ptr noundef nonnull align 8 dereferenceable(8) %1)
          to label %invoke.cont unwind label %terminate.lpad

invoke.cont:                                      ; preds = %entry
  ret void

terminate.lpad:                                   ; preds = %entry
  %2 = landingpad { ptr, i32 }
          catch ptr null
  %3 = extractvalue { ptr, i32 } %2, 0
  call void @__clang_call_terminate(ptr %3) #19
  unreachable
}

; Function Attrs: mustprogress nounwind uwtable
define internal noundef nonnull align 8 dereferenceable(8) ptr @_ZNKSt9_Any_data9_M_accessIZN7testing19exceptions_internal19ExceptionSafetyTestINS1_12_GLOBAL__N_111NonCopyableEE12WrapContractIPFNS1_15AssertionResultEPNS4_11NonNegativeEEEESt8functionIFS8_PS5_EERKT_EUlSE_E_EESJ_v(ptr noundef nonnull align 8 dereferenceable(16) %this) #7 align 2 {
entry:
  %this.addr = alloca ptr, align 8
  store ptr %this, ptr %this.addr, align 8
  %this1 = load ptr, ptr %this.addr, align 8
  %call = call noundef ptr @_ZNKSt9_Any_data9_M_accessEv(ptr noundef nonnull align 8 dereferenceable(16) %this1) #3
  ret ptr %call
}

; Function Attrs: mustprogress nounwind uwtable
define linkonce_odr dso_local noundef ptr @_ZNSt9_Any_data9_M_accessEv(ptr noundef nonnull align 8 dereferenceable(16) %this) #7 comdat align 2 {
entry:
  %this.addr = alloca ptr, align 8
  store ptr %this, ptr %this.addr, align 8
  %this1 = load ptr, ptr %this.addr, align 8
  %arrayidx = getelementptr inbounds [16 x i8], ptr %this1, i64 0, i64 0
  ret ptr %arrayidx
}

; Function Attrs: mustprogress uwtable
define internal noundef zeroext i1 @_ZNSt14_Function_base13_Base_managerIZN7testing19exceptions_internal19ExceptionSafetyTestINS1_12_GLOBAL__N_111NonCopyableEE12WrapContractIPFNS1_15AssertionResultEPNS4_11NonNegativeEEEESt8functionIFS8_PS5_EERKT_EUlSE_E_E10_M_managerERSt9_Any_dataRKSM_St18_Manager_operation(ptr noundef nonnull align 8 dereferenceable(16) %__dest, ptr noundef nonnull align 8 dereferenceable(16) %__source, i32 noundef %__op) #4 align 2 {
entry:
  %__dest.addr = alloca ptr, align 8
  %__source.addr = alloca ptr, align 8
  %__op.addr = alloca i32, align 4
  store ptr %__dest, ptr %__dest.addr, align 8
  store ptr %__source, ptr %__source.addr, align 8
  store i32 %__op, ptr %__op.addr, align 4
  %0 = load i32, ptr %__op.addr, align 4
  switch i32 %0, label %sw.epilog [
    i32 0, label %sw.bb
    i32 1, label %sw.bb1
    i32 2, label %sw.bb4
    i32 3, label %sw.bb6
  ]

sw.bb:                                            ; preds = %entry
  %1 = load ptr, ptr %__dest.addr, align 8
  %call = call noundef nonnull align 8 dereferenceable(8) ptr @_ZNSt9_Any_data9_M_accessIPKSt9type_infoEERT_v(ptr noundef nonnull align 8 dereferenceable(16) %1) #3
  store ptr @_ZTIZN7testing19exceptions_internal19ExceptionSafetyTestINS_12_GLOBAL__N_111NonCopyableEE12WrapContractIPFNS_15AssertionResultEPNS2_11NonNegativeEEEESt8functionIFS6_PS3_EERKT_EUlSC_E_, ptr %call, align 8
  br label %sw.epilog

sw.bb1:                                           ; preds = %entry
  %2 = load ptr, ptr %__source.addr, align 8
  %call2 = call noundef ptr @_ZNSt14_Function_base13_Base_managerIZN7testing19exceptions_internal19ExceptionSafetyTestINS1_12_GLOBAL__N_111NonCopyableEE12WrapContractIPFNS1_15AssertionResultEPNS4_11NonNegativeEEEESt8functionIFS8_PS5_EERKT_EUlSE_E_E14_M_get_pointerERKSt9_Any_data(ptr noundef nonnull align 8 dereferenceable(16) %2) #3
  %3 = load ptr, ptr %__dest.addr, align 8
  %call3 = call noundef nonnull align 8 dereferenceable(8) ptr @_ZNSt9_Any_data9_M_accessIPZN7testing19exceptions_internal19ExceptionSafetyTestINS1_12_GLOBAL__N_111NonCopyableEE12WrapContractIPFNS1_15AssertionResultEPNS4_11NonNegativeEEEESt8functionIFS8_PS5_EERKT_EUlSE_E_EERSH_v(ptr noundef nonnull align 8 dereferenceable(16) %3) #3
  store ptr %call2, ptr %call3, align 8
  br label %sw.epilog

sw.bb4:                                           ; preds = %entry
  %4 = load ptr, ptr %__dest.addr, align 8
  %5 = load ptr, ptr %__source.addr, align 8
  %call5 = call noundef ptr @_ZNSt14_Function_base13_Base_managerIZN7testing19exceptions_internal19ExceptionSafetyTestINS1_12_GLOBAL__N_111NonCopyableEE12WrapContractIPFNS1_15AssertionResultEPNS4_11NonNegativeEEEESt8functionIFS8_PS5_EERKT_EUlSE_E_E14_M_get_pointerERKSt9_Any_data(ptr noundef nonnull align 8 dereferenceable(16) %5) #3
  call void @_ZNSt14_Function_base13_Base_managerIZN7testing19exceptions_internal19ExceptionSafetyTestINS1_12_GLOBAL__N_111NonCopyableEE12WrapContractIPFNS1_15AssertionResultEPNS4_11NonNegativeEEEESt8functionIFS8_PS5_EERKT_EUlSE_E_E15_M_init_functorIRKSK_EEvRSt9_Any_dataOSH_(ptr noundef nonnull align 8 dereferenceable(16) %4, ptr noundef nonnull align 8 dereferenceable(8) %call5) #3
  br label %sw.epilog

sw.bb6:                                           ; preds = %entry
  %6 = load ptr, ptr %__dest.addr, align 8
  call void @_ZNSt14_Function_base13_Base_managerIZN7testing19exceptions_internal19ExceptionSafetyTestINS1_12_GLOBAL__N_111NonCopyableEE12WrapContractIPFNS1_15AssertionResultEPNS4_11NonNegativeEEEESt8functionIFS8_PS5_EERKT_EUlSE_E_E10_M_destroyERSt9_Any_dataSt17integral_constantIbLb1EE(ptr noundef nonnull align 8 dereferenceable(16) %6)
  br label %sw.epilog

sw.epilog:                                        ; preds = %sw.bb6, %sw.bb4, %sw.bb1, %sw.bb, %entry
  ret i1 false
}

; Function Attrs: mustprogress nounwind uwtable
define internal noundef nonnull align 8 dereferenceable(8) ptr @_ZNSt9_Any_data9_M_accessIPZN7testing19exceptions_internal19ExceptionSafetyTestINS1_12_GLOBAL__N_111NonCopyableEE12WrapContractIPFNS1_15AssertionResultEPNS4_11NonNegativeEEEESt8functionIFS8_PS5_EERKT_EUlSE_E_EERSH_v(ptr noundef nonnull align 8 dereferenceable(16) %this) #7 align 2 {
entry:
  %this.addr = alloca ptr, align 8
  store ptr %this, ptr %this.addr, align 8
  %this1 = load ptr, ptr %this.addr, align 8
  %call = call noundef ptr @_ZNSt9_Any_data9_M_accessEv(ptr noundef nonnull align 8 dereferenceable(16) %this1) #3
  ret ptr %call
}

; Function Attrs: mustprogress nounwind uwtable
define internal noundef ptr @_ZNSt14_Function_base13_Base_managerIZN7testing19exceptions_internal19ExceptionSafetyTestINS1_12_GLOBAL__N_111NonCopyableEE12WrapContractIPFNS1_15AssertionResultEPNS4_11NonNegativeEEEESt8functionIFS8_PS5_EERKT_EUlSE_E_E14_M_get_pointerERKSt9_Any_data(ptr noundef nonnull align 8 dereferenceable(16) %__source) #7 align 2 {
entry:
  %__source.addr = alloca ptr, align 8
  %__f = alloca ptr, align 8
  store ptr %__source, ptr %__source.addr, align 8
  %0 = load ptr, ptr %__source.addr, align 8
  %call = call noundef nonnull align 8 dereferenceable(8) ptr @_ZNKSt9_Any_data9_M_accessIZN7testing19exceptions_internal19ExceptionSafetyTestINS1_12_GLOBAL__N_111NonCopyableEE12WrapContractIPFNS1_15AssertionResultEPNS4_11NonNegativeEEEESt8functionIFS8_PS5_EERKT_EUlSE_E_EESJ_v(ptr noundef nonnull align 8 dereferenceable(16) %0) #3
  store ptr %call, ptr %__f, align 8
  %1 = load ptr, ptr %__f, align 8
  ret ptr %1
}

; Function Attrs: mustprogress nounwind uwtable
define linkonce_odr dso_local noundef nonnull align 8 dereferenceable(8) ptr @_ZNSt9_Any_data9_M_accessIPKSt9type_infoEERT_v(ptr noundef nonnull align 8 dereferenceable(16) %this) #7 comdat align 2 {
entry:
  %this.addr = alloca ptr, align 8
  store ptr %this, ptr %this.addr, align 8
  %this1 = load ptr, ptr %this.addr, align 8
  %call = call noundef ptr @_ZNSt9_Any_data9_M_accessEv(ptr noundef nonnull align 8 dereferenceable(16) %this1) #3
  ret ptr %call
}

; Function Attrs: mustprogress uwtable
define internal noundef zeroext i1 @_ZNSt17_Function_handlerIFN7testing15AssertionResultEPNS0_12_GLOBAL__N_111NonCopyableEEZNS0_19exceptions_internal19ExceptionSafetyTestIS3_E12WrapContractIPFS1_PNS2_11NonNegativeEEEESt8functionIS5_ERKT_EUlS4_E_E10_M_managerERSt9_Any_dataRKSL_St18_Manager_operation(ptr noundef nonnull align 8 dereferenceable(16) %__dest, ptr noundef nonnull align 8 dereferenceable(16) %__source, i32 noundef %__op) #4 align 2 {
entry:
  %__dest.addr = alloca ptr, align 8
  %__source.addr = alloca ptr, align 8
  %__op.addr = alloca i32, align 4
  store ptr %__dest, ptr %__dest.addr, align 8
  store ptr %__source, ptr %__source.addr, align 8
  store i32 %__op, ptr %__op.addr, align 4
  %0 = load i32, ptr %__op.addr, align 4
  switch i32 %0, label %sw.default [
    i32 0, label %sw.bb
    i32 1, label %sw.bb1
  ]

sw.bb:                                            ; preds = %entry
  %1 = load ptr, ptr %__dest.addr, align 8
  %call = call noundef nonnull align 8 dereferenceable(8) ptr @_ZNSt9_Any_data9_M_accessIPKSt9type_infoEERT_v(ptr noundef nonnull align 8 dereferenceable(16) %1) #3
  store ptr @_ZTIZN7testing19exceptions_internal19ExceptionSafetyTestINS_12_GLOBAL__N_111NonCopyableEE12WrapContractIPFNS_15AssertionResultEPNS2_11NonNegativeEEEESt8functionIFS6_PS3_EERKT_EUlSC_E_, ptr %call, align 8
  br label %sw.epilog

sw.bb1:                                           ; preds = %entry
  %2 = load ptr, ptr %__source.addr, align 8
  %call2 = call noundef ptr @_ZNSt14_Function_base13_Base_managerIZN7testing19exceptions_internal19ExceptionSafetyTestINS1_12_GLOBAL__N_111NonCopyableEE12WrapContractIPFNS1_15AssertionResultEPNS4_11NonNegativeEEEESt8functionIFS8_PS5_EERKT_EUlSE_E_E14_M_get_pointerERKSt9_Any_data(ptr noundef nonnull align 8 dereferenceable(16) %2) #3
  %3 = load ptr, ptr %__dest.addr, align 8
  %call3 = call noundef nonnull align 8 dereferenceable(8) ptr @_ZNSt9_Any_data9_M_accessIPZN7testing19exceptions_internal19ExceptionSafetyTestINS1_12_GLOBAL__N_111NonCopyableEE12WrapContractIPFNS1_15AssertionResultEPNS4_11NonNegativeEEEESt8functionIFS8_PS5_EERKT_EUlSE_E_EERSH_v(ptr noundef nonnull align 8 dereferenceable(16) %3) #3
  store ptr %call2, ptr %call3, align 8
  br label %sw.epilog

sw.default:                                       ; preds = %entry
  %4 = load ptr, ptr %__dest.addr, align 8
  %5 = load ptr, ptr %__source.addr, align 8
  %6 = load i32, ptr %__op.addr, align 4
  %call4 = call noundef zeroext i1 @_ZNSt14_Function_base13_Base_managerIZN7testing19exceptions_internal19ExceptionSafetyTestINS1_12_GLOBAL__N_111NonCopyableEE12WrapContractIPFNS1_15AssertionResultEPNS4_11NonNegativeEEEESt8functionIFS8_PS5_EERKT_EUlSE_E_E10_M_managerERSt9_Any_dataRKSM_St18_Manager_operation(ptr noundef nonnull align 8 dereferenceable(16) %4, ptr noundef nonnull align 8 dereferenceable(16) %5, i32 noundef %6)
  br label %sw.epilog

sw.epilog:                                        ; preds = %sw.default, %sw.bb1, %sw.bb
  ret i1 false
}